target datalayout = "e-m:e-p270:32:32-p271:32:32-p272:64:64-i64:64-i128:128-f80:128-n8:16:32:64-S128"
target triple = "x86_64-pc-linux-gnu"

%struct.expert_field = type { i32, i32 }
%struct._packet_info = type { ptr, ptr, i32, i32, %struct.nstime_t, %struct.nstime_t, %struct.nstime_t, i8, ptr, ptr, ptr, ptr, %struct._address, %struct._address, %struct._address, %struct._address, %struct._address, %struct._address, i32, ptr, i8, [3 x i8], %struct.anon, i32, i32, i32, i32, ptr, i8, ptr, ptr, i16, i16, i32, i32, i16, i32, i32, ptr, ptr, ptr, i8, i8, i16, i16, i16, i32, i16, i16, ptr, ptr, ptr, ptr, ptr, i32, i32 }
%struct.nstime_t = type { i64, i32 }
%struct._address = type { i32, i32, ptr, ptr }
%struct.anon = type { i8, [3 x i8] }

@proto_ip = internal global i32 0, align 4
@hf_ip_version = internal global i32 0, align 4
@ett_ip = internal global i32 0, align 4
@ei_ip_bogus_ip_version = internal global %struct.expert_field zeroinitializer, align 4
@.str.357 = private unnamed_addr constant [3 x i8] c"IP\00", align 1
@ipv6_handle = internal global ptr null, align 8
@.str.552 = private unnamed_addr constant [38 x i8] c"Internet Protocol, bogus version (%u)\00", align 1
@.str.553 = private unnamed_addr constant [22 x i8] c"Bogus IP version (%u)\00", align 1

; Function Attrs: null_pointer_is_valid sspstrong uwtable
define internal i32 @dissect_ip(ptr noundef %0, ptr noundef %1, ptr noundef %2, ptr noundef %3) #1 {
  %5 = alloca i32, align 4
  %6 = alloca ptr, align 8
  %7 = alloca ptr, align 8
  %8 = alloca ptr, align 8
  %9 = alloca ptr, align 8
  %10 = alloca ptr, align 8
  %11 = alloca ptr, align 8
  %12 = alloca ptr, align 8
  %13 = alloca i8, align 1
  %14 = alloca i32, align 4
  store ptr %0, ptr %6, align 8
  store ptr %1, ptr %7, align 8
  store ptr %2, ptr %8, align 8
  store ptr %3, ptr %9, align 8
  call void @llvm.lifetime.start.p0(i64 8, ptr %10) #12
  call void @llvm.lifetime.start.p0(i64 8, ptr %11) #12
  call void @llvm.lifetime.start.p0(i64 8, ptr %12) #12
  call void @llvm.lifetime.start.p0(i64 1, ptr %13) #12
  %15 = load ptr, ptr %6, align 8
  %16 = call zeroext i8 @tvb_get_uint8(ptr noundef %15, i32 noundef 0)
  %17 = zext i8 %16 to i32
  %18 = ashr i32 %17, 4
  %19 = trunc i32 %18 to i8
  store i8 %19, ptr %13, align 1
  %20 = load i8, ptr %13, align 1
  %21 = zext i8 %20 to i32
  %22 = icmp eq i32 %21, 4
  br i1 %22, label %23, label %29

23:                                               ; preds = %4
  %24 = load ptr, ptr %6, align 8
  %25 = load ptr, ptr %7, align 8
  %26 = load ptr, ptr %8, align 8
  %27 = load ptr, ptr %9, align 8
  %28 = call i32 @dissect_ip_v4(ptr noundef %24, ptr noundef %25, ptr noundef %26, ptr noundef %27)
  store i32 %28, ptr %5, align 4
  store i32 1, ptr %14, align 4
  br label %67

29:                                               ; preds = %4
  %30 = load i8, ptr %13, align 1
  %31 = zext i8 %30 to i32
  %32 = icmp eq i32 %31, 6
  br i1 %32, label %33, label %39

33:                                               ; preds = %29
  %34 = load ptr, ptr @ipv6_handle, align 8
  %35 = load ptr, ptr %6, align 8
  %36 = load ptr, ptr %7, align 8
  %37 = load ptr, ptr %8, align 8
  %38 = call i32 @call_dissector(ptr noundef %34, ptr noundef %35, ptr noundef %36, ptr noundef %37)
  store i32 %38, ptr %5, align 4
  store i32 1, ptr %14, align 4
  br label %67

39:                                               ; preds = %29
  %40 = load ptr, ptr %8, align 8
  %41 = load i32, ptr @proto_ip, align 4
  %42 = load ptr, ptr %6, align 8
  %43 = load i8, ptr %13, align 1
  %44 = zext i8 %43 to i32
  %45 = call ptr (ptr, i32, ptr, i32, i32, ptr, ...) @proto_tree_add_protocol_format(ptr noundef %40, i32 noundef %41, ptr noundef %42, i32 noundef 0, i32 noundef 1, ptr noundef @.str.552, i32 noundef %44)
  store ptr %45, ptr %11, align 8
  %46 = load ptr, ptr %7, align 8
  %47 = getelementptr inbounds nuw %struct._packet_info, ptr %46, i32 0, i32 1
  %48 = load ptr, ptr %47, align 8
  call void @col_set_str(ptr noundef %48, i32 noundef 35, ptr noundef @.str.357)
  %49 = load ptr, ptr %7, align 8
  %50 = getelementptr inbounds nuw %struct._packet_info, ptr %49, i32 0, i32 1
  %51 = load ptr, ptr %50, align 8
  call void @col_clear(ptr noundef %51, i32 noundef 25)
  %52 = load ptr, ptr %7, align 8
  %53 = getelementptr inbounds nuw %struct._packet_info, ptr %52, i32 0, i32 1
  %54 = load ptr, ptr %53, align 8
  %55 = load i8, ptr %13, align 1
  %56 = zext i8 %55 to i32
  call void (ptr, i32, ptr, ...) @col_add_fstr(ptr noundef %54, i32 noundef 25, ptr noundef @.str.553, i32 noundef %56)
  %57 = load ptr, ptr %11, align 8
  %58 = load i32, ptr @ett_ip, align 4
  %59 = call ptr @proto_item_add_subtree(ptr noundef %57, i32 noundef %58)
  store ptr %59, ptr %10, align 8
  %60 = load ptr, ptr %10, align 8
  %61 = load i32, ptr @hf_ip_version, align 4
  %62 = load ptr, ptr %6, align 8
  %63 = call ptr @proto_tree_add_bits_item(ptr noundef %60, i32 noundef %61, ptr noundef %62, i32 noundef 0, i32 noundef 4, i32 noundef 0)
  store ptr %63, ptr %12, align 8
  %64 = load ptr, ptr %7, align 8
  %65 = load ptr, ptr %12, align 8
  %66 = call ptr @expert_add_info(ptr noundef %64, ptr noundef %65, ptr noundef @ei_ip_bogus_ip_version)
  store i32 1, ptr %5, align 4
  store i32 1, ptr %14, align 4
  br label %67

67:                                               ; preds = %39, %33, %23
  call void @llvm.lifetime.end.p0(i64 1, ptr %13) #12
  call void @llvm.lifetime.end.p0(i64 8, ptr %12) #12
  call void @llvm.lifetime.end.p0(i64 8, ptr %11) #12
  call void @llvm.lifetime.end.p0(i64 8, ptr %10) #12
  %68 = load i32, ptr %5, align 4
  ret i32 %68
}