; Function Attrs: null_pointer_is_valid sspstrong uwtable
define internal i32 @dissect_ip(ptr noundef %0, ptr noundef %1, ptr noundef %2, ptr noundef readnone captures(none) %3) #1 {
  %5 = tail call zeroext i8 @tvb_get_uint8(ptr noundef %0, i32 noundef 0)
  %6 = lshr i8 %5, 4
  switch i8 %6, label %12 [
    i8 4, label %7
    i8 6, label %9
  ]

7:                                                ; preds = %4
  %8 = tail call i32 @dissect_ip_v4(ptr noundef %0, ptr noundef %1, ptr noundef %2, ptr poison)
  br label %25

9:                                                ; preds = %4
  %10 = load ptr, ptr @ipv6_handle, align 8
  %11 = tail call i32 @call_dissector(ptr noundef %10, ptr noundef %0, ptr noundef %1, ptr noundef %2)
  br label %25

12:                                               ; preds = %4
  %13 = zext nneg i8 %6 to i32
  %14 = load i32, ptr @proto_ip, align 4
  %15 = tail call ptr (ptr, i32, ptr, i32, i32, ptr, ...) @proto_tree_add_protocol_format(ptr noundef %2, i32 noundef %14, ptr noundef %0, i32 noundef 0, i32 noundef 1, ptr noundef nonnull @.str.552, i32 noundef %13)
  %16 = getelementptr inbounds nuw i8, ptr %1, i64 8
  %17 = load ptr, ptr %16, align 8
  tail call void @col_set_str(ptr noundef %17, i32 noundef 35, ptr noundef nonnull @.str.357)
  %18 = load ptr, ptr %16, align 8
  tail call void @col_clear(ptr noundef %18, i32 noundef 25)
  %19 = load ptr, ptr %16, align 8
  tail call void (ptr, i32, ptr, ...) @col_add_fstr(ptr noundef %19, i32 noundef 25, ptr noundef nonnull @.str.553, i32 noundef %13)
  %20 = load i32, ptr @ett_ip, align 4
  %21 = tail call ptr @proto_item_add_subtree(ptr noundef %15, i32 noundef %20)
  %22 = load i32, ptr @hf_ip_version, align 4
  %23 = tail call ptr @proto_tree_add_bits_item(ptr noundef %21, i32 noundef %22, ptr noundef %0, i32 noundef 0, i32 noundef 4, i32 noundef 0)
  %24 = tail call ptr @expert_add_info(ptr noundef %1, ptr noundef %23, ptr noundef nonnull @ei_ip_bogus_ip_version)
  br label %25

25:                                               ; preds = %12, %9, %7
  %.0 = phi i32 [ %8, %7 ], [ %11, %9 ], [ 1, %12 ]
  ret i32 %.0
}